; Function Attrs: mustprogress nounwind uwtable
define hidden void @_ZNK15MetaspaceTracer19report_gc_thresholdEmmN27MetaspaceGCThresholdUpdater4TypeE(ptr nocapture noundef nonnull readnone align 1 dereferenceable(1) %0, i64 noundef %1, i64 noundef %2, i32 noundef %3) local_unnamed_addr #0 align 2 {
  %5 = alloca %class.EventMetaspaceGCThreshold, align 8
  %6 = getelementptr inbounds i8, ptr %5, i64 8
  call void @llvm.memset.p0.i64(ptr noundef nonnull align 8 dereferenceable(11) %6, i8 0, i64 11, i1 false)
  %7 = load i8, ptr getelementptr inbounds (i8, ptr @_ZN15JfrEventSetting19_jvm_event_settingsE, i64 953), align 1
  %.not.i.not = icmp eq i8 %7, 0
  br i1 %.not.i.not, label %_ZN8JfrEventI25EventMetaspaceGCThresholdE13should_commitEv.exit, label %8

8:                                                ; preds = %4
  %9 = getelementptr inbounds i8, ptr %5, i64 18
  %10 = getelementptr inbounds i8, ptr %5, i64 17
  %11 = tail call noundef i64 @_ZN33FastUnorderedElapsedCounterSource3nowEv() #7
  store i64 %11, ptr %5, align 8
  store i8 1, ptr %10, align 1
  store i8 1, ptr %9, align 2
  %12 = getelementptr inbounds i8, ptr %5, i64 24
  store i64 %1, ptr %12, align 8
  %13 = getelementptr inbounds i8, ptr %5, i64 32
  store i64 %2, ptr %13, align 8
  %14 = and i32 %3, 255
  %15 = zext nneg i32 %14 to i64
  %16 = getelementptr inbounds i8, ptr %5, i64 40
  store i64 %15, ptr %16, align 8
  call void @_ZN8JfrEventI25EventMetaspaceGCThresholdE6commitEv(ptr noundef nonnull align 8 dereferenceable(19) %5)
  br label %_ZN8JfrEventI25EventMetaspaceGCThresholdE13should_commitEv.exit

_ZN8JfrEventI25EventMetaspaceGCThresholdE13should_commitEv.exit: ; preds = %4, %8
  ret void
}